target datalayout = "e-m:e-p270:32:32-p271:32:32-p272:64:64-i64:64-i128:128-f80:128-n8:16:32:64-S128"
target triple = "x86_64-pc-linux-gnu"

%struct.archive_read = type { %struct.archive, ptr, i32, i64, i64, %struct.archive_read_client, [16 x %struct.archive_read_filter_bidder], ptr, i32, i64, i32, i32, [16 x %struct.archive_format_descriptor], ptr, ptr, ptr, %struct.anon }
%struct.archive = type { i32, i32, ptr, i32, ptr, i32, i32, ptr, %struct.archive_string, ptr, i32, i32, ptr, ptr, i64, i64, i64, i8, i64 }
%struct.archive_string = type { ptr, i64, i64 }
%struct.archive_read_client = type { ptr, ptr, ptr, ptr, ptr, ptr, i32, i32, i64, ptr }
%struct.archive_read_filter_bidder = type { ptr, ptr, ptr }
%struct.archive_format_descriptor = type { ptr, ptr, ptr, ptr, ptr, ptr, ptr, ptr, ptr, ptr, ptr }
%struct.anon = type { ptr, ptr, i32, ptr, ptr }

; Function Attrs: nounwind uwtable
define dso_local ptr @archive_read_new() #0 {
  %1 = alloca ptr, align 8
  %2 = alloca ptr, align 8
  %3 = alloca i32, align 4
  call void @llvm.lifetime.start.p0(i64 8, ptr %2) #11
  %4 = call noalias ptr @calloc(i64 noundef 1, i64 noundef 2136) #12
  store ptr %4, ptr %2, align 8, !tbaa !4
  %5 = load ptr, ptr %2, align 8, !tbaa !4
  %6 = icmp eq ptr %5, null
  br i1 %6, label %7, label %8

7:                                                ; preds = %0
  store ptr null, ptr %1, align 8
  store i32 1, ptr %3, align 4
  br label %31

8:                                                ; preds = %0
  %9 = load ptr, ptr %2, align 8, !tbaa !4
  %10 = getelementptr inbounds nuw %struct.archive_read, ptr %9, i32 0, i32 0
  %11 = getelementptr inbounds nuw %struct.archive, ptr %10, i32 0, i32 0
  store i32 14594245, ptr %11, align 8, !tbaa !9
  %12 = load ptr, ptr %2, align 8, !tbaa !4
  %13 = getelementptr inbounds nuw %struct.archive_read, ptr %12, i32 0, i32 0
  %14 = getelementptr inbounds nuw %struct.archive, ptr %13, i32 0, i32 1
  store i32 1, ptr %14, align 4, !tbaa !27
  %15 = load ptr, ptr %2, align 8, !tbaa !4
  %16 = getelementptr inbounds nuw %struct.archive_read, ptr %15, i32 0, i32 0
  %17 = call ptr @archive_entry_new2(ptr noundef %16)
  %18 = load ptr, ptr %2, align 8, !tbaa !4
  %19 = getelementptr inbounds nuw %struct.archive_read, ptr %18, i32 0, i32 1
  store ptr %17, ptr %19, align 8, !tbaa !28
  %20 = load ptr, ptr %2, align 8, !tbaa !4
  %21 = getelementptr inbounds nuw %struct.archive_read, ptr %20, i32 0, i32 0
  %22 = getelementptr inbounds nuw %struct.archive, ptr %21, i32 0, i32 2
  store ptr @archive_read_vtable, ptr %22, align 8, !tbaa !29
  %23 = load ptr, ptr %2, align 8, !tbaa !4
  %24 = getelementptr inbounds nuw %struct.archive_read, ptr %23, i32 0, i32 16
  %25 = getelementptr inbounds nuw %struct.anon, ptr %24, i32 0, i32 0
  %26 = load ptr, ptr %2, align 8, !tbaa !4
  %27 = getelementptr inbounds nuw %struct.archive_read, ptr %26, i32 0, i32 16
  %28 = getelementptr inbounds nuw %struct.anon, ptr %27, i32 0, i32 1
  store ptr %25, ptr %28, align 8, !tbaa !30
  %29 = load ptr, ptr %2, align 8, !tbaa !4
  %30 = getelementptr inbounds nuw %struct.archive_read, ptr %29, i32 0, i32 0
  store ptr %30, ptr %1, align 8
  store i32 1, ptr %3, align 4
  br label %31

31:                                               ; preds = %8, %7
  call void @llvm.lifetime.end.p0(i64 8, ptr %2) #11
  %32 = load ptr, ptr %1, align 8
  ret ptr %32
}