; Function Attrs: nounwind uwtable
define dso_local noundef ptr @archive_read_new() local_unnamed_addr #0 {
  %1 = tail call noalias dereferenceable_or_null(2136) ptr @calloc(i64 noundef 1, i64 noundef 2136) #14
  %2 = icmp eq ptr %1, null
  br i1 %2, label %10, label %3

3:                                                ; preds = %0
  store i32 14594245, ptr %1, align 8, !tbaa !4
  %4 = getelementptr inbounds nuw i8, ptr %1, i64 4
  store i32 1, ptr %4, align 4, !tbaa !25
  %5 = tail call ptr @archive_entry_new2(ptr noundef nonnull %1) #15
  %6 = getelementptr inbounds nuw i8, ptr %1, i64 144
  store ptr %5, ptr %6, align 8, !tbaa !26
  %7 = getelementptr inbounds nuw i8, ptr %1, i64 8
  store ptr @archive_read_vtable, ptr %7, align 8, !tbaa !27
  %8 = getelementptr inbounds nuw i8, ptr %1, i64 2096
  %9 = getelementptr inbounds nuw i8, ptr %1, i64 2104
  store ptr %8, ptr %9, align 8, !tbaa !28
  br label %10

10:                                               ; preds = %0, %3
  ret ptr %1
}